; ModuleID = '16/1283.c'
source_filename = "16/1283.c"
target datalayout = "e-m:e-p270:32:32-p271:32:32-p272:64:64-i64:64-f80:128-n8:16:32:64-S128"
target triple = "x86_64-pc-linux-gnu"

@.str = private unnamed_addr constant [3 x i8] c"%d\00", align 1
@.str.1 = private unnamed_addr constant [5 x i8] c"%02d\00", align 1
@.str.2 = private unnamed_addr constant [5 x i8] c"%03d\00", align 1
@.str.3 = private unnamed_addr constant [5 x i8] c"%04d\00", align 1
@.str.4 = private unnamed_addr constant [6 x i8] c"00001\00", align 1

; Function Attrs: noinline nounwind uwtable
define dso_local i32 @main() #0 {
  %1 = alloca i32, align 4
  %2 = alloca i32, align 4
  %3 = alloca i32, align 4
  %4 = alloca i32, align 4
  %5 = alloca i32, align 4
  %6 = alloca i32, align 4
  %7 = alloca i32, align 4
  store i32 0, i32* %1, align 4
  %8 = call i32 (i8*, ...) @__isoc99_scanf(i8* getelementptr inbounds ([3 x i8], [3 x i8]* @.str, i64 0, i64 0), i32* %7)
  %9 = load i32, i32* %7, align 4
  %10 = sdiv i32 %9, 10000
  store i32 %10, i32* %6, align 4
  %11 = load i32, i32* %7, align 4
  %12 = load i32, i32* %6, align 4
  %13 = mul nsw i32 %12, 10000
  %14 = sub nsw i32 %11, %13
  %15 = sdiv i32 %14, 1000
  store i32 %15, i32* %5, align 4
  %16 = load i32, i32* %7, align 4
  %17 = load i32, i32* %6, align 4
  %18 = mul nsw i32 %17, 10000
  %19 = sub nsw i32 %16, %18
  %20 = load i32, i32* %5, align 4
  %21 = mul nsw i32 %20, 1000
  %22 = sub nsw i32 %19, %21
  %23 = sdiv i32 %22, 100
  store i32 %23, i32* %4, align 4
  %24 = load i32, i32* %7, align 4
  %25 = load i32, i32* %6, align 4
  %26 = mul nsw i32 %25, 10000
  %27 = sub nsw i32 %24, %26
  %28 = load i32, i32* %5, align 4
  %29 = mul nsw i32 %28, 1000
  %30 = sub nsw i32 %27, %29
  %31 = load i32, i32* %4, align 4
  %32 = mul nsw i32 %31, 100
  %33 = sub nsw i32 %30, %32
  %34 = sdiv i32 %33, 10
  store i32 %34, i32* %3, align 4
  %35 = load i32, i32* %7, align 4
  %36 = load i32, i32* %6, align 4
  %37 = mul nsw i32 %36, 10000
  %38 = sub nsw i32 %35, %37
  %39 = load i32, i32* %5, align 4
  %40 = mul nsw i32 %39, 1000
  %41 = sub nsw i32 %38, %40
  %42 = load i32, i32* %4, align 4
  %43 = mul nsw i32 %42, 100
  %44 = sub nsw i32 %41, %43
  %45 = load i32, i32* %3, align 4
  %46 = mul nsw i32 %45, 10
  %47 = sub nsw i32 %44, %46
  store i32 %47, i32* %2, align 4
  %48 = load i32, i32* %7, align 4
  %49 = icmp slt i32 %48, 10
  br i1 %49, label %50, label %53

50:                                               ; preds = %0
  %51 = load i32, i32* %2, align 4
  %52 = call i32 (i8*, ...) @printf(i8* getelementptr inbounds ([3 x i8], [3 x i8]* @.str, i64 0, i64 0), i32 %51)
  br label %98

53:                                               ; preds = %0
  %54 = load i32, i32* %7, align 4
  %55 = icmp slt i32 %54, 100
  br i1 %55, label %56, label %62

56:                                               ; preds = %53
  %57 = load i32, i32* %2, align 4
  %58 = mul nsw i32 10, %57
  %59 = load i32, i32* %3, align 4
  %60 = add nsw i32 %58, %59
  %61 = call i32 (i8*, ...) @printf(i8* getelementptr inbounds ([5 x i8], [5 x i8]* @.str.1, i64 0, i64 0), i32 %60)
  br label %97

62:                                               ; preds = %53
  %63 = load i32, i32* %7, align 4
  %64 = icmp slt i32 %63, 1000
  br i1 %64, label %65, label %74

65:                                               ; preds = %62
  %66 = load i32, i32* %2, align 4
  %67 = mul nsw i32 100, %66
  %68 = load i32, i32* %3, align 4
  %69 = mul nsw i32 10, %68
  %70 = add nsw i32 %67, %69
  %71 = load i32, i32* %4, align 4
  %72 = add nsw i32 %70, %71
  %73 = call i32 (i8*, ...) @printf(i8* getelementptr inbounds ([5 x i8], [5 x i8]* @.str.2, i64 0, i64 0), i32 %72)
  br label %96

74:                                               ; preds = %62
  %75 = load i32, i32* %7, align 4
  %76 = icmp slt i32 %75, 10000
  br i1 %76, label %77, label %89

77:                                               ; preds = %74
  %78 = load i32, i32* %2, align 4
  %79 = mul nsw i32 1000, %78
  %80 = load i32, i32* %3, align 4
  %81 = mul nsw i32 100, %80
  %82 = add nsw i32 %79, %81
  %83 = load i32, i32* %4, align 4
  %84 = mul nsw i32 10, %83
  %85 = add nsw i32 %82, %84
  %86 = load i32, i32* %5, align 4
  %87 = add nsw i32 %85, %86
  %88 = call i32 (i8*, ...) @printf(i8* getelementptr inbounds ([5 x i8], [5 x i8]* @.str.3, i64 0, i64 0), i32 %87)
  br label %95

89:                                               ; preds = %74
  %90 = load i32, i32* %7, align 4
  %91 = icmp eq i32 %90, 10000
  br i1 %91, label %92, label %94

92:                                               ; preds = %89
  %93 = call i32 (i8*, ...) @printf(i8* getelementptr inbounds ([6 x i8], [6 x i8]* @.str.4, i64 0, i64 0))
  br label %94

94:                                               ; preds = %92, %89
  br label %95

95:                                               ; preds = %94, %77
  br label %96

96:                                               ; preds = %95, %65
  br label %97

97:                                               ; preds = %96, %56
  br label %98

98:                                               ; preds = %97, %50
  ret i32 0
}

declare dso_local i32 @__isoc99_scanf(i8*, ...) #1

declare dso_local i32 @printf(i8*, ...) #1


!llvm.module.flags = !{!0}
!llvm.ident = !{!1}

!0 = !{i32 1, !"wchar_size", i32 4}
!1 = !{!"clang version 10.0.0-4ubuntu1 "}
