; ModuleID = 'source-C-CXX/15/1283.c'
source_filename = "source-C-CXX/15/1283.c"
target datalayout = "e-m:e-p270:32:32-p271:32:32-p272:64:64-i64:64-f80:128-n8:16:32:64-S128"
target triple = "x86_64-pc-linux-gnu"

@.str = private unnamed_addr constant [3 x i8] c"%d\00", align 1
@.str.1 = private unnamed_addr constant [5 x i8] c"%02d\00", align 1
@.str.2 = private unnamed_addr constant [5 x i8] c"%03d\00", align 1
@.str.3 = private unnamed_addr constant [5 x i8] c"%04d\00", align 1
@.str.4 = private unnamed_addr constant [6 x i8] c"00001\00", align 1

; Function Attrs: nofree nounwind sspstrong uwtable
define dso_local i32 @main() local_unnamed_addr #0 {
  %1 = alloca i32, align 4
  %2 = bitcast i32* %1 to i8*
  call void @llvm.lifetime.start.p0i8(i64 4, i8* nonnull %2) #3
  %3 = call i32 (i8*, ...) @__isoc99_scanf(i8* getelementptr inbounds ([3 x i8], [3 x i8]* @.str, i64 0, i64 0), i32* nonnull %1)
  %4 = load i32, i32* %1, align 4, !tbaa !5
  %5 = srem i32 %4, 10000
  %6 = trunc i32 %5 to i16
  %7 = sdiv i16 %6, 1000
  %8 = sext i16 %7 to i32
  %9 = mul nsw i32 %8, -1000
  %10 = add nsw i32 %9, %5
  %11 = trunc i32 %10 to i16
  %12 = sdiv i16 %11, 100
  %13 = sext i16 %12 to i32
  %14 = mul nsw i32 %13, -100
  %15 = add nsw i32 %14, %10
  %16 = sdiv i32 %15, 10
  %17 = mul nsw i32 %16, 10
  %18 = srem i32 %15, 10
  %19 = icmp slt i32 %4, 10
  br i1 %19, label %20, label %22

20:                                               ; preds = %0
  %21 = call i32 (i8*, ...) @printf(i8* nonnull dereferenceable(1) getelementptr inbounds ([3 x i8], [3 x i8]* @.str, i64 0, i64 0), i32 %18)
  br label %49

22:                                               ; preds = %0
  %23 = icmp slt i32 %4, 100
  br i1 %23, label %24, label %28

24:                                               ; preds = %22
  %25 = mul nsw i32 %18, 10
  %26 = add nsw i32 %25, %16
  %27 = call i32 (i8*, ...) @printf(i8* nonnull dereferenceable(1) getelementptr inbounds ([5 x i8], [5 x i8]* @.str.1, i64 0, i64 0), i32 %26)
  br label %49

28:                                               ; preds = %22
  %29 = icmp slt i32 %4, 1000
  br i1 %29, label %30, label %35

30:                                               ; preds = %28
  %31 = mul nsw i32 %18, 100
  %32 = add nsw i32 %17, %13
  %33 = add nsw i32 %32, %31
  %34 = call i32 (i8*, ...) @printf(i8* nonnull dereferenceable(1) getelementptr inbounds ([5 x i8], [5 x i8]* @.str.2, i64 0, i64 0), i32 %33)
  br label %49

35:                                               ; preds = %28
  %36 = icmp slt i32 %4, 10000
  br i1 %36, label %37, label %45

37:                                               ; preds = %35
  %38 = mul nsw i32 %18, 1000
  %39 = mul nsw i32 %16, 100
  %40 = mul nsw i32 %13, 10
  %41 = add nsw i32 %40, %8
  %42 = add nsw i32 %41, %39
  %43 = add nsw i32 %42, %38
  %44 = call i32 (i8*, ...) @printf(i8* nonnull dereferenceable(1) getelementptr inbounds ([5 x i8], [5 x i8]* @.str.3, i64 0, i64 0), i32 %43)
  br label %49

45:                                               ; preds = %35
  %46 = icmp eq i32 %4, 10000
  br i1 %46, label %47, label %49

47:                                               ; preds = %45
  %48 = call i32 (i8*, ...) @printf(i8* nonnull dereferenceable(1) getelementptr inbounds ([6 x i8], [6 x i8]* @.str.4, i64 0, i64 0))
  br label %49

49:                                               ; preds = %24, %37, %47, %45, %30, %20
  call void @llvm.lifetime.end.p0i8(i64 4, i8* nonnull %2) #3
  ret i32 0
}

; Function Attrs: argmemonly mustprogress nofree nosync nounwind willreturn
declare void @llvm.lifetime.start.p0i8(i64 immarg, i8* nocapture) #1

; Function Attrs: nofree nounwind
declare noundef i32 @__isoc99_scanf(i8* nocapture noundef readonly, ...) local_unnamed_addr #2

; Function Attrs: nofree nounwind
declare noundef i32 @printf(i8* nocapture noundef readonly, ...) local_unnamed_addr #2

; Function Attrs: argmemonly mustprogress nofree nosync nounwind willreturn
declare void @llvm.lifetime.end.p0i8(i64 immarg, i8* nocapture) #1


!llvm.module.flags = !{!0, !1, !2, !3}
!llvm.ident = !{!4}

!0 = !{i32 1, !"wchar_size", i32 4}
!1 = !{i32 7, !"PIC Level", i32 2}
!2 = !{i32 7, !"PIE Level", i32 2}
!3 = !{i32 7, !"uwtable", i32 1}
!4 = !{!"clang version 13.0.0"}
!5 = !{!6, !6, i64 0}
!6 = !{!"int", !7, i64 0}
!7 = !{!"omnipotent char", !8, i64 0}
!8 = !{!"Simple C/C++ TBAA"}
